; Function Attrs: mustprogress nounwind uwtable
define void @_ZN8proxygen12WorkerThreadD2Ev(ptr nocapture noundef nonnull align 8 dereferenceable(80) %this) unnamed_addr #3 align 2 personality ptr @__gxx_personality_v0 {
entry:
  %ref.tmp2 = alloca %"class.google::LogMessageFatal", align 8
  store ptr getelementptr inbounds ({ [6 x ptr] }, ptr @_ZTVN8proxygen12WorkerThreadE, i64 0, i32 0, i64 2), ptr %this, align 8
  %state_ = getelementptr inbounds i8, ptr %this, i64 8
  %0 = load i8, ptr %state_, align 8
  %cmp.not.not = icmp eq i8 %0, 0
  br i1 %cmp.not.not, label %cleanup.done, label %cond.false

cond.false:                                       ; preds = %entry
  invoke void @_ZN6google15LogMessageFatalC1EPKci(ptr noundef nonnull align 8 dereferenceable(96) %ref.tmp2, ptr noundef nonnull @.str, i32 noundef 85)
          to label %invoke.cont3 unwind label %terminate.lpad

invoke.cont3:                                     ; preds = %cond.false
  %call = invoke noundef nonnull align 8 dereferenceable(8) ptr @_ZN6google10LogMessage6streamEv(ptr noundef nonnull align 8 dereferenceable(96) %ref.tmp2)
          to label %invoke.cont4 unwind label %terminate.lpad

invoke.cont4:                                     ; preds = %invoke.cont3
  %call6 = invoke noundef nonnull align 8 dereferenceable(8) ptr @_ZStlsISt11char_traitsIcEERSt13basic_ostreamIcT_ES5_PKc(ptr noundef nonnull align 8 dereferenceable(8) %call, ptr noundef nonnull @.str.3)
          to label %cleanup.action unwind label %terminate.lpad

cleanup.action:                                   ; preds = %invoke.cont4
  call void @_ZN6google15LogMessageFatalD1Ev(ptr noundef nonnull align 8 dereferenceable(96) %ref.tmp2) #15
  unreachable

cleanup.done:                                     ; preds = %entry
  %eventBase_.i = getelementptr inbounds i8, ptr %this, i64 72
  %1 = load ptr, ptr %eventBase_.i, align 8
  store ptr null, ptr %eventBase_.i, align 8
  %tobool.not.i.i.i = icmp eq ptr %1, null
  br i1 %tobool.not.i.i.i, label %_ZNSt10unique_ptrIN5folly9EventBaseESt14default_deleteIS1_EED2Ev.exit, label %_ZN8proxygen12WorkerThread14resetEventBaseEv.exit

_ZN8proxygen12WorkerThread14resetEventBaseEv.exit: ; preds = %cleanup.done
  %vtable.i.i.i.i = load ptr, ptr %1, align 16
  %vfn.i.i.i.i = getelementptr inbounds i8, ptr %vtable.i.i.i.i, i64 8
  %2 = load ptr, ptr %vfn.i.i.i.i, align 8
  tail call void %2(ptr noundef nonnull align 16 dereferenceable(568) %1) #16
  %.pr = load ptr, ptr %eventBase_.i, align 8
  %cmp.not.i = icmp eq ptr %.pr, null
  br i1 %cmp.not.i, label %_ZNSt10unique_ptrIN5folly9EventBaseESt14default_deleteIS1_EED2Ev.exit, label %_ZNKSt14default_deleteIN5folly9EventBaseEEclEPS1_.exit.i

_ZNKSt14default_deleteIN5folly9EventBaseEEclEPS1_.exit.i: ; preds = %_ZN8proxygen12WorkerThread14resetEventBaseEv.exit
  %vtable.i.i = load ptr, ptr %.pr, align 16
  %vfn.i.i = getelementptr inbounds i8, ptr %vtable.i.i, i64 8
  %3 = load ptr, ptr %vfn.i.i, align 8
  tail call void %3(ptr noundef nonnull align 16 dereferenceable(568) %.pr) #16
  br label %_ZNSt10unique_ptrIN5folly9EventBaseESt14default_deleteIS1_EED2Ev.exit

_ZNSt10unique_ptrIN5folly9EventBaseESt14default_deleteIS1_EED2Ev.exit: ; preds = %cleanup.done, %_ZN8proxygen12WorkerThread14resetEventBaseEv.exit, %_ZNKSt14default_deleteIN5folly9EventBaseEEclEPS1_.exit.i
  store ptr null, ptr %eventBase_.i, align 8
  %thread_ = getelementptr inbounds i8, ptr %this, i64 16
  %agg.tmp.sroa.0.0.copyload.i.i = load i64, ptr %thread_, align 8
  %cmp.i.i.not.i = icmp eq i64 %agg.tmp.sroa.0.0.copyload.i.i, 0
  br i1 %cmp.i.i.not.i, label %_ZNSt6threadD2Ev.exit, label %if.then.i

if.then.i:                                        ; preds = %_ZNSt10unique_ptrIN5folly9EventBaseESt14default_deleteIS1_EED2Ev.exit
  tail call void @_ZSt9terminatev() #15
  unreachable

_ZNSt6threadD2Ev.exit:                            ; preds = %_ZNSt10unique_ptrIN5folly9EventBaseESt14default_deleteIS1_EED2Ev.exit
  ret void

terminate.lpad:                                   ; preds = %invoke.cont4, %invoke.cont3, %cond.false
  %4 = landingpad { ptr, i32 }
          catch ptr null
  %5 = extractvalue { ptr, i32 } %4, 0
  call void @__clang_call_terminate(ptr %5) #15
  unreachable
}